
_init:     file format elf32-i386


Disassembly of section .text:

00000000 <main>:

char *argv[] = { "sh", 0 };

int
main(void)
{
   0:	55                   	push   %ebp
   1:	89 e5                	mov    %esp,%ebp
   3:	53                   	push   %ebx
   4:	83 e4 f0             	and    $0xfffffff0,%esp
   7:	83 ec 10             	sub    $0x10,%esp
  int pid, wpid;

  if(open("console", O_RDWR) < 0){
   a:	c7 44 24 04 02 00 00 	movl   $0x2,0x4(%esp)
  11:	00 
  12:	c7 04 24 e6 07 00 00 	movl   $0x7e6,(%esp)
  19:	e8 56 03 00 00       	call   374 <open>
  1e:	85 c0                	test   %eax,%eax
  20:	0f 88 ac 00 00 00    	js     d2 <main+0xd2>
    mknod("console", 1, 1);
    open("console", O_RDWR);
  }
  dup(0);  // stdout
  26:	c7 04 24 00 00 00 00 	movl   $0x0,(%esp)
  2d:	e8 7a 03 00 00       	call   3ac <dup>
  dup(0);  // stderr
  32:	c7 04 24 00 00 00 00 	movl   $0x0,(%esp)
  39:	e8 6e 03 00 00       	call   3ac <dup>
  3e:	66 90                	xchg   %ax,%ax

  for(;;){
    printf(1, "init: starting sh\n");
  40:	c7 44 24 04 ee 07 00 	movl   $0x7ee,0x4(%esp)
  47:	00 
  48:	c7 04 24 01 00 00 00 	movl   $0x1,(%esp)
  4f:	e8 2c 04 00 00       	call   480 <printf>
    pid = fork();
  54:	e8 d3 02 00 00       	call   32c <fork>
    if(pid < 0){
  59:	85 c0                	test   %eax,%eax
  dup(0);  // stdout
  dup(0);  // stderr

  for(;;){
    printf(1, "init: starting sh\n");
    pid = fork();
  5b:	89 c3                	mov    %eax,%ebx
    if(pid < 0){
  5d:	78 2d                	js     8c <main+0x8c>
  5f:	90                   	nop
      printf(1, "init: fork failed\n");
      exit();
    }
    if(pid == 0){
  60:	74 43                	je     a5 <main+0xa5>
  62:	8d b6 00 00 00 00    	lea    0x0(%esi),%esi
      exec("sh", argv);
      printf(1, "init: exec sh failed\n");
      exit();
    }
    while((wpid=wait()) >= 0 && wpid != pid)
  68:	e8 cf 02 00 00       	call   33c <wait>
  6d:	85 c0                	test   %eax,%eax
  6f:	90                   	nop
  70:	78 ce                	js     40 <main+0x40>
  72:	39 d8                	cmp    %ebx,%eax
  74:	74 ca                	je     40 <main+0x40>
      printf(1, "zombie!\n");
  76:	c7 44 24 04 2d 08 00 	movl   $0x82d,0x4(%esp)
  7d:	00 
  7e:	c7 04 24 01 00 00 00 	movl   $0x1,(%esp)
  85:	e8 f6 03 00 00       	call   480 <printf>
  8a:	eb dc                	jmp    68 <main+0x68>

  for(;;){
    printf(1, "init: starting sh\n");
    pid = fork();
    if(pid < 0){
      printf(1, "init: fork failed\n");
  8c:	c7 44 24 04 01 08 00 	movl   $0x801,0x4(%esp)
  93:	00 
  94:	c7 04 24 01 00 00 00 	movl   $0x1,(%esp)
  9b:	e8 e0 03 00 00       	call   480 <printf>
      exit();
  a0:	e8 8f 02 00 00       	call   334 <exit>
    }
    if(pid == 0){
      exec("sh", argv);
  a5:	c7 44 24 04 b4 0a 00 	movl   $0xab4,0x4(%esp)
  ac:	00 
  ad:	c7 04 24 14 08 00 00 	movl   $0x814,(%esp)
  b4:	e8 b3 02 00 00       	call   36c <exec>
      printf(1, "init: exec sh failed\n");
  b9:	c7 44 24 04 17 08 00 	movl   $0x817,0x4(%esp)
  c0:	00 
  c1:	c7 04 24 01 00 00 00 	movl   $0x1,(%esp)
  c8:	e8 b3 03 00 00       	call   480 <printf>
      exit();
  cd:	e8 62 02 00 00       	call   334 <exit>
main(void)
{
  int pid, wpid;

  if(open("console", O_RDWR) < 0){
    mknod("console", 1, 1);
  d2:	c7 44 24 08 01 00 00 	movl   $0x1,0x8(%esp)
  d9:	00 
  da:	c7 44 24 04 01 00 00 	movl   $0x1,0x4(%esp)
  e1:	00 
  e2:	c7 04 24 e6 07 00 00 	movl   $0x7e6,(%esp)
  e9:	e8 8e 02 00 00       	call   37c <mknod>
    open("console", O_RDWR);
  ee:	c7 44 24 04 02 00 00 	movl   $0x2,0x4(%esp)
  f5:	00 
  f6:	c7 04 24 e6 07 00 00 	movl   $0x7e6,(%esp)
  fd:	e8 72 02 00 00       	call   374 <open>
 102:	e9 1f ff ff ff       	jmp    26 <main+0x26>
 107:	90                   	nop
 108:	90                   	nop
 109:	90                   	nop
 10a:	90                   	nop
 10b:	90                   	nop
 10c:	90                   	nop
 10d:	90                   	nop
 10e:	90                   	nop
 10f:	90                   	nop

00000110 <strcpy>:
#include "user.h"
#include "x86.h"

char*
strcpy(char *s, char *t)
{
 110:	55                   	push   %ebp
 111:	89 e5                	mov    %esp,%ebp
 113:	8b 45 08             	mov    0x8(%ebp),%eax
 116:	8b 4d 0c             	mov    0xc(%ebp),%ecx
 119:	53                   	push   %ebx
  char *os;

  os = s;
  while((*s++ = *t++) != 0)
 11a:	89 c2                	mov    %eax,%edx
 11c:	8d 74 26 00          	lea    0x0(%esi,%eiz,1),%esi
 120:	83 c1 01             	add    $0x1,%ecx
 123:	0f b6 59 ff          	movzbl -0x1(%ecx),%ebx
 127:	83 c2 01             	add    $0x1,%edx
 12a:	84 db                	test   %bl,%bl
 12c:	88 5a ff             	mov    %bl,-0x1(%edx)
 12f:	75 ef                	jne    120 <strcpy+0x10>
    ;
  return os;
}
 131:	5b                   	pop    %ebx
 132:	5d                   	pop    %ebp
 133:	c3                   	ret    
 134:	8d b6 00 00 00 00    	lea    0x0(%esi),%esi
 13a:	8d bf 00 00 00 00    	lea    0x0(%edi),%edi

00000140 <strcmp>:

int
strcmp(const char *p, const char *q)
{
 140:	55                   	push   %ebp
 141:	89 e5                	mov    %esp,%ebp
 143:	8b 55 08             	mov    0x8(%ebp),%edx
 146:	53                   	push   %ebx
 147:	8b 4d 0c             	mov    0xc(%ebp),%ecx
  while(*p && *p == *q)
 14a:	0f b6 02             	movzbl (%edx),%eax
 14d:	84 c0                	test   %al,%al
 14f:	74 2d                	je     17e <strcmp+0x3e>
 151:	0f b6 19             	movzbl (%ecx),%ebx
 154:	38 d8                	cmp    %bl,%al
 156:	74 0e                	je     166 <strcmp+0x26>
 158:	eb 2b                	jmp    185 <strcmp+0x45>
 15a:	8d b6 00 00 00 00    	lea    0x0(%esi),%esi
 160:	38 c8                	cmp    %cl,%al
 162:	75 15                	jne    179 <strcmp+0x39>
    p++, q++;
 164:	89 d9                	mov    %ebx,%ecx
 166:	83 c2 01             	add    $0x1,%edx
}

int
strcmp(const char *p, const char *q)
{
  while(*p && *p == *q)
 169:	0f b6 02             	movzbl (%edx),%eax
    p++, q++;
 16c:	8d 59 01             	lea    0x1(%ecx),%ebx
}

int
strcmp(const char *p, const char *q)
{
  while(*p && *p == *q)
 16f:	0f b6 49 01          	movzbl 0x1(%ecx),%ecx
 173:	84 c0                	test   %al,%al
 175:	75 e9                	jne    160 <strcmp+0x20>
 177:	31 c0                	xor    %eax,%eax
    p++, q++;
  return (uchar)*p - (uchar)*q;
 179:	29 c8                	sub    %ecx,%eax
}
 17b:	5b                   	pop    %ebx
 17c:	5d                   	pop    %ebp
 17d:	c3                   	ret    
 17e:	0f b6 09             	movzbl (%ecx),%ecx
}

int
strcmp(const char *p, const char *q)
{
  while(*p && *p == *q)
 181:	31 c0                	xor    %eax,%eax
 183:	eb f4                	jmp    179 <strcmp+0x39>
 185:	0f b6 cb             	movzbl %bl,%ecx
 188:	eb ef                	jmp    179 <strcmp+0x39>
 18a:	8d b6 00 00 00 00    	lea    0x0(%esi),%esi

00000190 <strlen>:
  return (uchar)*p - (uchar)*q;
}

uint
strlen(char *s)
{
 190:	55                   	push   %ebp
 191:	89 e5                	mov    %esp,%ebp
 193:	8b 4d 08             	mov    0x8(%ebp),%ecx
  int n;

  for(n = 0; s[n]; n++)
 196:	80 39 00             	cmpb   $0x0,(%ecx)
 199:	74 12                	je     1ad <strlen+0x1d>
 19b:	31 d2                	xor    %edx,%edx
 19d:	8d 76 00             	lea    0x0(%esi),%esi
 1a0:	83 c2 01             	add    $0x1,%edx
 1a3:	80 3c 11 00          	cmpb   $0x0,(%ecx,%edx,1)
 1a7:	89 d0                	mov    %edx,%eax
 1a9:	75 f5                	jne    1a0 <strlen+0x10>
    ;
  return n;
}
 1ab:	5d                   	pop    %ebp
 1ac:	c3                   	ret    
uint
strlen(char *s)
{
  int n;

  for(n = 0; s[n]; n++)
 1ad:	31 c0                	xor    %eax,%eax
    ;
  return n;
}
 1af:	5d                   	pop    %ebp
 1b0:	c3                   	ret    
 1b1:	eb 0d                	jmp    1c0 <memset>
 1b3:	90                   	nop
 1b4:	90                   	nop
 1b5:	90                   	nop
 1b6:	90                   	nop
 1b7:	90                   	nop
 1b8:	90                   	nop
 1b9:	90                   	nop
 1ba:	90                   	nop
 1bb:	90                   	nop
 1bc:	90                   	nop
 1bd:	90                   	nop
 1be:	90                   	nop
 1bf:	90                   	nop

000001c0 <memset>:

void*
memset(void *dst, int c, uint n)
{
 1c0:	55                   	push   %ebp
 1c1:	89 e5                	mov    %esp,%ebp
 1c3:	8b 55 08             	mov    0x8(%ebp),%edx
 1c6:	57                   	push   %edi
}

static inline void
stosb(void *addr, int data, int cnt)
{
  asm volatile("cld; rep stosb" :
 1c7:	8b 4d 10             	mov    0x10(%ebp),%ecx
 1ca:	8b 45 0c             	mov    0xc(%ebp),%eax
 1cd:	89 d7                	mov    %edx,%edi
 1cf:	fc                   	cld    
 1d0:	f3 aa                	rep stos %al,%es:(%edi)
  stosb(dst, c, n);
  return dst;
}
 1d2:	89 d0                	mov    %edx,%eax
 1d4:	5f                   	pop    %edi
 1d5:	5d                   	pop    %ebp
 1d6:	c3                   	ret    
 1d7:	89 f6                	mov    %esi,%esi
 1d9:	8d bc 27 00 00 00 00 	lea    0x0(%edi,%eiz,1),%edi

000001e0 <strchr>:

char*
strchr(const char *s, char c)
{
 1e0:	55                   	push   %ebp
 1e1:	89 e5                	mov    %esp,%ebp
 1e3:	8b 45 08             	mov    0x8(%ebp),%eax
 1e6:	53                   	push   %ebx
 1e7:	8b 55 0c             	mov    0xc(%ebp),%edx
  for(; *s; s++)
 1ea:	0f b6 18             	movzbl (%eax),%ebx
 1ed:	84 db                	test   %bl,%bl
 1ef:	74 1d                	je     20e <strchr+0x2e>
    if(*s == c)
 1f1:	38 d3                	cmp    %dl,%bl
 1f3:	89 d1                	mov    %edx,%ecx
 1f5:	75 0d                	jne    204 <strchr+0x24>
 1f7:	eb 17                	jmp    210 <strchr+0x30>
 1f9:	8d b4 26 00 00 00 00 	lea    0x0(%esi,%eiz,1),%esi
 200:	38 ca                	cmp    %cl,%dl
 202:	74 0c                	je     210 <strchr+0x30>
}

char*
strchr(const char *s, char c)
{
  for(; *s; s++)
 204:	83 c0 01             	add    $0x1,%eax
 207:	0f b6 10             	movzbl (%eax),%edx
 20a:	84 d2                	test   %dl,%dl
 20c:	75 f2                	jne    200 <strchr+0x20>
    if(*s == c)
      return (char*)s;
  return 0;
 20e:	31 c0                	xor    %eax,%eax
}
 210:	5b                   	pop    %ebx
 211:	5d                   	pop    %ebp
 212:	c3                   	ret    
 213:	8d b6 00 00 00 00    	lea    0x0(%esi),%esi
 219:	8d bc 27 00 00 00 00 	lea    0x0(%edi,%eiz,1),%edi

00000220 <gets>:

char*
gets(char *buf, int max)
{
 220:	55                   	push   %ebp
 221:	89 e5                	mov    %esp,%ebp
 223:	57                   	push   %edi
 224:	56                   	push   %esi
  int i, cc;
  char c;

  for(i=0; i+1 < max; ){
 225:	31 f6                	xor    %esi,%esi
  return 0;
}

char*
gets(char *buf, int max)
{
 227:	53                   	push   %ebx
 228:	83 ec 2c             	sub    $0x2c,%esp
  int i, cc;
  char c;

  for(i=0; i+1 < max; ){
    cc = read(0, &c, 1);
 22b:	8d 7d e7             	lea    -0x19(%ebp),%edi
gets(char *buf, int max)
{
  int i, cc;
  char c;

  for(i=0; i+1 < max; ){
 22e:	eb 31                	jmp    261 <gets+0x41>
    cc = read(0, &c, 1);
 230:	c7 44 24 08 01 00 00 	movl   $0x1,0x8(%esp)
 237:	00 
 238:	89 7c 24 04          	mov    %edi,0x4(%esp)
 23c:	c7 04 24 00 00 00 00 	movl   $0x0,(%esp)
 243:	e8 04 01 00 00       	call   34c <read>
    if(cc < 1)
 248:	85 c0                	test   %eax,%eax
 24a:	7e 1d                	jle    269 <gets+0x49>
      break;
    buf[i++] = c;
 24c:	0f b6 45 e7          	movzbl -0x19(%ebp),%eax
gets(char *buf, int max)
{
  int i, cc;
  char c;

  for(i=0; i+1 < max; ){
 250:	89 de                	mov    %ebx,%esi
    cc = read(0, &c, 1);
    if(cc < 1)
      break;
    buf[i++] = c;
 252:	8b 55 08             	mov    0x8(%ebp),%edx
    if(c == '\n' || c == '\r')
 255:	3c 0d                	cmp    $0xd,%al

  for(i=0; i+1 < max; ){
    cc = read(0, &c, 1);
    if(cc < 1)
      break;
    buf[i++] = c;
 257:	88 44 1a ff          	mov    %al,-0x1(%edx,%ebx,1)
    if(c == '\n' || c == '\r')
 25b:	74 0c                	je     269 <gets+0x49>
 25d:	3c 0a                	cmp    $0xa,%al
 25f:	74 08                	je     269 <gets+0x49>
gets(char *buf, int max)
{
  int i, cc;
  char c;

  for(i=0; i+1 < max; ){
 261:	8d 5e 01             	lea    0x1(%esi),%ebx
 264:	3b 5d 0c             	cmp    0xc(%ebp),%ebx
 267:	7c c7                	jl     230 <gets+0x10>
      break;
    buf[i++] = c;
    if(c == '\n' || c == '\r')
      break;
  }
  buf[i] = '\0';
 269:	8b 45 08             	mov    0x8(%ebp),%eax
 26c:	c6 04 30 00          	movb   $0x0,(%eax,%esi,1)
  return buf;
}
 270:	83 c4 2c             	add    $0x2c,%esp
 273:	5b                   	pop    %ebx
 274:	5e                   	pop    %esi
 275:	5f                   	pop    %edi
 276:	5d                   	pop    %ebp
 277:	c3                   	ret    
 278:	90                   	nop
 279:	8d b4 26 00 00 00 00 	lea    0x0(%esi,%eiz,1),%esi

00000280 <stat>:

int
stat(char *n, struct stat *st)
{
 280:	55                   	push   %ebp
 281:	89 e5                	mov    %esp,%ebp
 283:	56                   	push   %esi
 284:	53                   	push   %ebx
 285:	83 ec 10             	sub    $0x10,%esp
  int fd;
  int r;

  fd = open(n, O_RDONLY);
 288:	8b 45 08             	mov    0x8(%ebp),%eax
 28b:	c7 44 24 04 00 00 00 	movl   $0x0,0x4(%esp)
 292:	00 
 293:	89 04 24             	mov    %eax,(%esp)
 296:	e8 d9 00 00 00       	call   374 <open>
  if(fd < 0)
 29b:	85 c0                	test   %eax,%eax
stat(char *n, struct stat *st)
{
  int fd;
  int r;

  fd = open(n, O_RDONLY);
 29d:	89 c3                	mov    %eax,%ebx
  if(fd < 0)
 29f:	78 27                	js     2c8 <stat+0x48>
    return -1;
  r = fstat(fd, st);
 2a1:	8b 45 0c             	mov    0xc(%ebp),%eax
 2a4:	89 1c 24             	mov    %ebx,(%esp)
 2a7:	89 44 24 04          	mov    %eax,0x4(%esp)
 2ab:	e8 dc 00 00 00       	call   38c <fstat>
  close(fd);
 2b0:	89 1c 24             	mov    %ebx,(%esp)
  int r;

  fd = open(n, O_RDONLY);
  if(fd < 0)
    return -1;
  r = fstat(fd, st);
 2b3:	89 c6                	mov    %eax,%esi
  close(fd);
 2b5:	e8 a2 00 00 00       	call   35c <close>
  return r;
 2ba:	89 f0                	mov    %esi,%eax
}
 2bc:	83 c4 10             	add    $0x10,%esp
 2bf:	5b                   	pop    %ebx
 2c0:	5e                   	pop    %esi
 2c1:	5d                   	pop    %ebp
 2c2:	c3                   	ret    
 2c3:	90                   	nop
 2c4:	8d 74 26 00          	lea    0x0(%esi,%eiz,1),%esi
  int fd;
  int r;

  fd = open(n, O_RDONLY);
  if(fd < 0)
    return -1;
 2c8:	b8 ff ff ff ff       	mov    $0xffffffff,%eax
 2cd:	eb ed                	jmp    2bc <stat+0x3c>
 2cf:	90                   	nop

000002d0 <atoi>:
  return r;
}

int
atoi(const char *s)
{
 2d0:	55                   	push   %ebp
 2d1:	89 e5                	mov    %esp,%ebp
 2d3:	8b 4d 08             	mov    0x8(%ebp),%ecx
 2d6:	53                   	push   %ebx
  int n;

  n = 0;
  while('0' <= *s && *s <= '9')
 2d7:	0f be 11             	movsbl (%ecx),%edx
 2da:	8d 42 d0             	lea    -0x30(%edx),%eax
 2dd:	3c 09                	cmp    $0x9,%al
int
atoi(const char *s)
{
  int n;

  n = 0;
 2df:	b8 00 00 00 00       	mov    $0x0,%eax
  while('0' <= *s && *s <= '9')
 2e4:	77 17                	ja     2fd <atoi+0x2d>
 2e6:	66 90                	xchg   %ax,%ax
    n = n*10 + *s++ - '0';
 2e8:	83 c1 01             	add    $0x1,%ecx
 2eb:	8d 04 80             	lea    (%eax,%eax,4),%eax
 2ee:	8d 44 42 d0          	lea    -0x30(%edx,%eax,2),%eax
atoi(const char *s)
{
  int n;

  n = 0;
  while('0' <= *s && *s <= '9')
 2f2:	0f be 11             	movsbl (%ecx),%edx
 2f5:	8d 5a d0             	lea    -0x30(%edx),%ebx
 2f8:	80 fb 09             	cmp    $0x9,%bl
 2fb:	76 eb                	jbe    2e8 <atoi+0x18>
    n = n*10 + *s++ - '0';
  return n;
}
 2fd:	5b                   	pop    %ebx
 2fe:	5d                   	pop    %ebp
 2ff:	c3                   	ret    

00000300 <memmove>:

void*
memmove(void *vdst, void *vsrc, int n)
{
 300:	55                   	push   %ebp
  char *dst, *src;

  dst = vdst;
  src = vsrc;
  while(n-- > 0)
 301:	31 d2                	xor    %edx,%edx
  return n;
}

void*
memmove(void *vdst, void *vsrc, int n)
{
 303:	89 e5                	mov    %esp,%ebp
 305:	56                   	push   %esi
 306:	8b 45 08             	mov    0x8(%ebp),%eax
 309:	53                   	push   %ebx
 30a:	8b 5d 10             	mov    0x10(%ebp),%ebx
 30d:	8b 75 0c             	mov    0xc(%ebp),%esi
  char *dst, *src;

  dst = vdst;
  src = vsrc;
  while(n-- > 0)
 310:	85 db                	test   %ebx,%ebx
 312:	7e 12                	jle    326 <memmove+0x26>
 314:	8d 74 26 00          	lea    0x0(%esi,%eiz,1),%esi
    *dst++ = *src++;
 318:	0f b6 0c 16          	movzbl (%esi,%edx,1),%ecx
 31c:	88 0c 10             	mov    %cl,(%eax,%edx,1)
 31f:	83 c2 01             	add    $0x1,%edx
{
  char *dst, *src;

  dst = vdst;
  src = vsrc;
  while(n-- > 0)
 322:	39 da                	cmp    %ebx,%edx
 324:	75 f2                	jne    318 <memmove+0x18>
    *dst++ = *src++;
  return vdst;
}
 326:	5b                   	pop    %ebx
 327:	5e                   	pop    %esi
 328:	5d                   	pop    %ebp
 329:	c3                   	ret    
 32a:	90                   	nop
 32b:	90                   	nop

0000032c <fork>:
  name: \
    movl $SYS_ ## name, %eax; \
    int $T_SYSCALL; \
    ret

SYSCALL(fork)
 32c:	b8 01 00 00 00       	mov    $0x1,%eax
 331:	cd 40                	int    $0x40
 333:	c3                   	ret    

00000334 <exit>:
SYSCALL(exit)
 334:	b8 02 00 00 00       	mov    $0x2,%eax
 339:	cd 40                	int    $0x40
 33b:	c3                   	ret    

0000033c <wait>:
SYSCALL(wait)
 33c:	b8 03 00 00 00       	mov    $0x3,%eax
 341:	cd 40                	int    $0x40
 343:	c3                   	ret    

00000344 <pipe>:
SYSCALL(pipe)
 344:	b8 04 00 00 00       	mov    $0x4,%eax
 349:	cd 40                	int    $0x40
 34b:	c3                   	ret    

0000034c <read>:
SYSCALL(read)
 34c:	b8 05 00 00 00       	mov    $0x5,%eax
 351:	cd 40                	int    $0x40
 353:	c3                   	ret    

00000354 <write>:
SYSCALL(write)
 354:	b8 10 00 00 00       	mov    $0x10,%eax
 359:	cd 40                	int    $0x40
 35b:	c3                   	ret    

0000035c <close>:
SYSCALL(close)
 35c:	b8 15 00 00 00       	mov    $0x15,%eax
 361:	cd 40                	int    $0x40
 363:	c3                   	ret    

00000364 <kill>:
SYSCALL(kill)
 364:	b8 06 00 00 00       	mov    $0x6,%eax
 369:	cd 40                	int    $0x40
 36b:	c3                   	ret    

0000036c <exec>:
SYSCALL(exec)
 36c:	b8 07 00 00 00       	mov    $0x7,%eax
 371:	cd 40                	int    $0x40
 373:	c3                   	ret    

00000374 <open>:
SYSCALL(open)
 374:	b8 0f 00 00 00       	mov    $0xf,%eax
 379:	cd 40                	int    $0x40
 37b:	c3                   	ret    

0000037c <mknod>:
SYSCALL(mknod)
 37c:	b8 11 00 00 00       	mov    $0x11,%eax
 381:	cd 40                	int    $0x40
 383:	c3                   	ret    

00000384 <unlink>:
SYSCALL(unlink)
 384:	b8 12 00 00 00       	mov    $0x12,%eax
 389:	cd 40                	int    $0x40
 38b:	c3                   	ret    

0000038c <fstat>:
SYSCALL(fstat)
 38c:	b8 08 00 00 00       	mov    $0x8,%eax
 391:	cd 40                	int    $0x40
 393:	c3                   	ret    

00000394 <link>:
SYSCALL(link)
 394:	b8 13 00 00 00       	mov    $0x13,%eax
 399:	cd 40                	int    $0x40
 39b:	c3                   	ret    

0000039c <mkdir>:
SYSCALL(mkdir)
 39c:	b8 14 00 00 00       	mov    $0x14,%eax
 3a1:	cd 40                	int    $0x40
 3a3:	c3                   	ret    

000003a4 <chdir>:
SYSCALL(chdir)
 3a4:	b8 09 00 00 00       	mov    $0x9,%eax
 3a9:	cd 40                	int    $0x40
 3ab:	c3                   	ret    

000003ac <dup>:
SYSCALL(dup)
 3ac:	b8 0a 00 00 00       	mov    $0xa,%eax
 3b1:	cd 40                	int    $0x40
 3b3:	c3                   	ret    

000003b4 <getpid>:
SYSCALL(getpid)
 3b4:	b8 0b 00 00 00       	mov    $0xb,%eax
 3b9:	cd 40                	int    $0x40
 3bb:	c3                   	ret    

000003bc <sbrk>:
SYSCALL(sbrk)
 3bc:	b8 0c 00 00 00       	mov    $0xc,%eax
 3c1:	cd 40                	int    $0x40
 3c3:	c3                   	ret    

000003c4 <sleep>:
SYSCALL(sleep)
 3c4:	b8 0d 00 00 00       	mov    $0xd,%eax
 3c9:	cd 40                	int    $0x40
 3cb:	c3                   	ret    

000003cc <uptime>:
SYSCALL(uptime)
 3cc:	b8 0e 00 00 00       	mov    $0xe,%eax
 3d1:	cd 40                	int    $0x40
 3d3:	c3                   	ret    

000003d4 <date>:
SYSCALL(date)
 3d4:	b8 16 00 00 00       	mov    $0x16,%eax
 3d9:	cd 40                	int    $0x40
 3db:	c3                   	ret    
 3dc:	90                   	nop
 3dd:	90                   	nop
 3de:	90                   	nop
 3df:	90                   	nop

000003e0 <printint>:
 3e0:	55                   	push   %ebp
 3e1:	89 e5                	mov    %esp,%ebp
 3e3:	57                   	push   %edi
 3e4:	56                   	push   %esi
 3e5:	89 c6                	mov    %eax,%esi
 3e7:	53                   	push   %ebx
 3e8:	83 ec 4c             	sub    $0x4c,%esp
 3eb:	8b 5d 08             	mov    0x8(%ebp),%ebx
 3ee:	85 db                	test   %ebx,%ebx
 3f0:	74 09                	je     3fb <printint+0x1b>
 3f2:	89 d0                	mov    %edx,%eax
 3f4:	c1 e8 1f             	shr    $0x1f,%eax
 3f7:	84 c0                	test   %al,%al
 3f9:	75 75                	jne    470 <printint+0x90>
 3fb:	89 d0                	mov    %edx,%eax
 3fd:	c7 45 c4 00 00 00 00 	movl   $0x0,-0x3c(%ebp)
 404:	89 75 c0             	mov    %esi,-0x40(%ebp)
 407:	31 ff                	xor    %edi,%edi
 409:	89 ce                	mov    %ecx,%esi
 40b:	8d 5d d7             	lea    -0x29(%ebp),%ebx
 40e:	eb 02                	jmp    412 <printint+0x32>
 410:	89 cf                	mov    %ecx,%edi
 412:	31 d2                	xor    %edx,%edx
 414:	f7 f6                	div    %esi
 416:	8d 4f 01             	lea    0x1(%edi),%ecx
 419:	0f b6 92 3d 08 00 00 	movzbl 0x83d(%edx),%edx
 420:	85 c0                	test   %eax,%eax
 422:	88 14 0b             	mov    %dl,(%ebx,%ecx,1)
 425:	75 e9                	jne    410 <printint+0x30>
 427:	8b 55 c4             	mov    -0x3c(%ebp),%edx
 42a:	89 c8                	mov    %ecx,%eax
 42c:	8b 75 c0             	mov    -0x40(%ebp),%esi
 42f:	85 d2                	test   %edx,%edx
 431:	74 08                	je     43b <printint+0x5b>
 433:	8d 4f 02             	lea    0x2(%edi),%ecx
 436:	c6 44 05 d8 2d       	movb   $0x2d,-0x28(%ebp,%eax,1)
 43b:	8d 79 ff             	lea    -0x1(%ecx),%edi
 43e:	66 90                	xchg   %ax,%ax
 440:	0f b6 44 3d d8       	movzbl -0x28(%ebp,%edi,1),%eax
 445:	83 ef 01             	sub    $0x1,%edi
 448:	c7 44 24 08 01 00 00 	movl   $0x1,0x8(%esp)
 44f:	00 
 450:	89 5c 24 04          	mov    %ebx,0x4(%esp)
 454:	89 34 24             	mov    %esi,(%esp)
 457:	88 45 d7             	mov    %al,-0x29(%ebp)
 45a:	e8 f5 fe ff ff       	call   354 <write>
 45f:	83 ff ff             	cmp    $0xffffffff,%edi
 462:	75 dc                	jne    440 <printint+0x60>
 464:	83 c4 4c             	add    $0x4c,%esp
 467:	5b                   	pop    %ebx
 468:	5e                   	pop    %esi
 469:	5f                   	pop    %edi
 46a:	5d                   	pop    %ebp
 46b:	c3                   	ret    
 46c:	8d 74 26 00          	lea    0x0(%esi,%eiz,1),%esi
 470:	89 d0                	mov    %edx,%eax
 472:	f7 d8                	neg    %eax
 474:	c7 45 c4 01 00 00 00 	movl   $0x1,-0x3c(%ebp)
 47b:	eb 87                	jmp    404 <printint+0x24>
 47d:	8d 76 00             	lea    0x0(%esi),%esi

00000480 <printf>:
 480:	55                   	push   %ebp
 481:	89 e5                	mov    %esp,%ebp
 483:	57                   	push   %edi
 484:	31 ff                	xor    %edi,%edi
 486:	56                   	push   %esi
 487:	53                   	push   %ebx
 488:	83 ec 3c             	sub    $0x3c,%esp
 48b:	8b 5d 0c             	mov    0xc(%ebp),%ebx
 48e:	8d 45 10             	lea    0x10(%ebp),%eax
 491:	8b 75 08             	mov    0x8(%ebp),%esi
 494:	89 45 d4             	mov    %eax,-0x2c(%ebp)
 497:	0f b6 13             	movzbl (%ebx),%edx
 49a:	83 c3 01             	add    $0x1,%ebx
 49d:	84 d2                	test   %dl,%dl
 49f:	75 39                	jne    4da <printf+0x5a>
 4a1:	e9 c2 00 00 00       	jmp    568 <printf+0xe8>
 4a6:	66 90                	xchg   %ax,%ax
 4a8:	83 fa 25             	cmp    $0x25,%edx
 4ab:	0f 84 bf 00 00 00    	je     570 <printf+0xf0>
 4b1:	8d 45 e2             	lea    -0x1e(%ebp),%eax
 4b4:	c7 44 24 08 01 00 00 	movl   $0x1,0x8(%esp)
 4bb:	00 
 4bc:	89 44 24 04          	mov    %eax,0x4(%esp)
 4c0:	89 34 24             	mov    %esi,(%esp)
 4c3:	88 55 e2             	mov    %dl,-0x1e(%ebp)
 4c6:	e8 89 fe ff ff       	call   354 <write>
 4cb:	83 c3 01             	add    $0x1,%ebx
 4ce:	0f b6 53 ff          	movzbl -0x1(%ebx),%edx
 4d2:	84 d2                	test   %dl,%dl
 4d4:	0f 84 8e 00 00 00    	je     568 <printf+0xe8>
 4da:	85 ff                	test   %edi,%edi
 4dc:	0f be c2             	movsbl %dl,%eax
 4df:	74 c7                	je     4a8 <printf+0x28>
 4e1:	83 ff 25             	cmp    $0x25,%edi
 4e4:	75 e5                	jne    4cb <printf+0x4b>
 4e6:	83 fa 64             	cmp    $0x64,%edx
 4e9:	0f 84 31 01 00 00    	je     620 <printf+0x1a0>
 4ef:	25 f7 00 00 00       	and    $0xf7,%eax
 4f4:	83 f8 70             	cmp    $0x70,%eax
 4f7:	0f 84 83 00 00 00    	je     580 <printf+0x100>
 4fd:	83 fa 73             	cmp    $0x73,%edx
 500:	0f 84 a2 00 00 00    	je     5a8 <printf+0x128>
 506:	83 fa 63             	cmp    $0x63,%edx
 509:	0f 84 35 01 00 00    	je     644 <printf+0x1c4>
 50f:	83 fa 25             	cmp    $0x25,%edx
 512:	0f 84 e0 00 00 00    	je     5f8 <printf+0x178>
 518:	8d 45 e6             	lea    -0x1a(%ebp),%eax
 51b:	83 c3 01             	add    $0x1,%ebx
 51e:	c7 44 24 08 01 00 00 	movl   $0x1,0x8(%esp)
 525:	00 
 526:	31 ff                	xor    %edi,%edi
 528:	89 44 24 04          	mov    %eax,0x4(%esp)
 52c:	89 34 24             	mov    %esi,(%esp)
 52f:	89 55 d0             	mov    %edx,-0x30(%ebp)
 532:	c6 45 e6 25          	movb   $0x25,-0x1a(%ebp)
 536:	e8 19 fe ff ff       	call   354 <write>
 53b:	8b 55 d0             	mov    -0x30(%ebp),%edx
 53e:	8d 45 e7             	lea    -0x19(%ebp),%eax
 541:	c7 44 24 08 01 00 00 	movl   $0x1,0x8(%esp)
 548:	00 
 549:	89 44 24 04          	mov    %eax,0x4(%esp)
 54d:	89 34 24             	mov    %esi,(%esp)
 550:	88 55 e7             	mov    %dl,-0x19(%ebp)
 553:	e8 fc fd ff ff       	call   354 <write>
 558:	0f b6 53 ff          	movzbl -0x1(%ebx),%edx
 55c:	84 d2                	test   %dl,%dl
 55e:	0f 85 76 ff ff ff    	jne    4da <printf+0x5a>
 564:	8d 74 26 00          	lea    0x0(%esi,%eiz,1),%esi
 568:	83 c4 3c             	add    $0x3c,%esp
 56b:	5b                   	pop    %ebx
 56c:	5e                   	pop    %esi
 56d:	5f                   	pop    %edi
 56e:	5d                   	pop    %ebp
 56f:	c3                   	ret    
 570:	bf 25 00 00 00       	mov    $0x25,%edi
 575:	e9 51 ff ff ff       	jmp    4cb <printf+0x4b>
 57a:	8d b6 00 00 00 00    	lea    0x0(%esi),%esi
 580:	8b 45 d4             	mov    -0x2c(%ebp),%eax
 583:	b9 10 00 00 00       	mov    $0x10,%ecx
 588:	31 ff                	xor    %edi,%edi
 58a:	c7 04 24 00 00 00 00 	movl   $0x0,(%esp)
 591:	8b 10                	mov    (%eax),%edx
 593:	89 f0                	mov    %esi,%eax
 595:	e8 46 fe ff ff       	call   3e0 <printint>
 59a:	83 45 d4 04          	addl   $0x4,-0x2c(%ebp)
 59e:	e9 28 ff ff ff       	jmp    4cb <printf+0x4b>
 5a3:	90                   	nop
 5a4:	8d 74 26 00          	lea    0x0(%esi,%eiz,1),%esi
 5a8:	8b 45 d4             	mov    -0x2c(%ebp),%eax
 5ab:	83 45 d4 04          	addl   $0x4,-0x2c(%ebp)
 5af:	8b 38                	mov    (%eax),%edi
 5b1:	b8 36 08 00 00       	mov    $0x836,%eax
 5b6:	85 ff                	test   %edi,%edi
 5b8:	0f 44 f8             	cmove  %eax,%edi
 5bb:	0f b6 07             	movzbl (%edi),%eax
 5be:	84 c0                	test   %al,%al
 5c0:	74 2a                	je     5ec <printf+0x16c>
 5c2:	8d b6 00 00 00 00    	lea    0x0(%esi),%esi
 5c8:	88 45 e3             	mov    %al,-0x1d(%ebp)
 5cb:	8d 45 e3             	lea    -0x1d(%ebp),%eax
 5ce:	83 c7 01             	add    $0x1,%edi
 5d1:	c7 44 24 08 01 00 00 	movl   $0x1,0x8(%esp)
 5d8:	00 
 5d9:	89 44 24 04          	mov    %eax,0x4(%esp)
 5dd:	89 34 24             	mov    %esi,(%esp)
 5e0:	e8 6f fd ff ff       	call   354 <write>
 5e5:	0f b6 07             	movzbl (%edi),%eax
 5e8:	84 c0                	test   %al,%al
 5ea:	75 dc                	jne    5c8 <printf+0x148>
 5ec:	31 ff                	xor    %edi,%edi
 5ee:	e9 d8 fe ff ff       	jmp    4cb <printf+0x4b>
 5f3:	90                   	nop
 5f4:	8d 74 26 00          	lea    0x0(%esi,%eiz,1),%esi
 5f8:	8d 45 e5             	lea    -0x1b(%ebp),%eax
 5fb:	31 ff                	xor    %edi,%edi
 5fd:	c7 44 24 08 01 00 00 	movl   $0x1,0x8(%esp)
 604:	00 
 605:	89 44 24 04          	mov    %eax,0x4(%esp)
 609:	89 34 24             	mov    %esi,(%esp)
 60c:	c6 45 e5 25          	movb   $0x25,-0x1b(%ebp)
 610:	e8 3f fd ff ff       	call   354 <write>
 615:	e9 b1 fe ff ff       	jmp    4cb <printf+0x4b>
 61a:	8d b6 00 00 00 00    	lea    0x0(%esi),%esi
 620:	8b 45 d4             	mov    -0x2c(%ebp),%eax
 623:	b9 0a 00 00 00       	mov    $0xa,%ecx
 628:	66 31 ff             	xor    %di,%di
 62b:	c7 04 24 01 00 00 00 	movl   $0x1,(%esp)
 632:	8b 10                	mov    (%eax),%edx
 634:	89 f0                	mov    %esi,%eax
 636:	e8 a5 fd ff ff       	call   3e0 <printint>
 63b:	83 45 d4 04          	addl   $0x4,-0x2c(%ebp)
 63f:	e9 87 fe ff ff       	jmp    4cb <printf+0x4b>
 644:	8b 45 d4             	mov    -0x2c(%ebp),%eax
 647:	31 ff                	xor    %edi,%edi
 649:	8b 00                	mov    (%eax),%eax
 64b:	c7 44 24 08 01 00 00 	movl   $0x1,0x8(%esp)
 652:	00 
 653:	89 34 24             	mov    %esi,(%esp)
 656:	88 45 e4             	mov    %al,-0x1c(%ebp)
 659:	8d 45 e4             	lea    -0x1c(%ebp),%eax
 65c:	89 44 24 04          	mov    %eax,0x4(%esp)
 660:	e8 ef fc ff ff       	call   354 <write>
 665:	83 45 d4 04          	addl   $0x4,-0x2c(%ebp)
 669:	e9 5d fe ff ff       	jmp    4cb <printf+0x4b>
 66e:	90                   	nop
 66f:	90                   	nop

00000670 <free>:
 670:	55                   	push   %ebp
 671:	a1 bc 0a 00 00       	mov    0xabc,%eax
 676:	89 e5                	mov    %esp,%ebp
 678:	57                   	push   %edi
 679:	56                   	push   %esi
 67a:	53                   	push   %ebx
 67b:	8b 5d 08             	mov    0x8(%ebp),%ebx
 67e:	8b 08                	mov    (%eax),%ecx
 680:	8d 53 f8             	lea    -0x8(%ebx),%edx
 683:	39 d0                	cmp    %edx,%eax
 685:	72 11                	jb     698 <free+0x28>
 687:	90                   	nop
 688:	39 c8                	cmp    %ecx,%eax
 68a:	72 04                	jb     690 <free+0x20>
 68c:	39 ca                	cmp    %ecx,%edx
 68e:	72 10                	jb     6a0 <free+0x30>
 690:	89 c8                	mov    %ecx,%eax
 692:	39 d0                	cmp    %edx,%eax
 694:	8b 08                	mov    (%eax),%ecx
 696:	73 f0                	jae    688 <free+0x18>
 698:	39 ca                	cmp    %ecx,%edx
 69a:	72 04                	jb     6a0 <free+0x30>
 69c:	39 c8                	cmp    %ecx,%eax
 69e:	72 f0                	jb     690 <free+0x20>
 6a0:	8b 73 fc             	mov    -0x4(%ebx),%esi
 6a3:	8d 3c f2             	lea    (%edx,%esi,8),%edi
 6a6:	39 cf                	cmp    %ecx,%edi
 6a8:	74 1e                	je     6c8 <free+0x58>
 6aa:	89 4b f8             	mov    %ecx,-0x8(%ebx)
 6ad:	8b 48 04             	mov    0x4(%eax),%ecx
 6b0:	8d 34 c8             	lea    (%eax,%ecx,8),%esi
 6b3:	39 f2                	cmp    %esi,%edx
 6b5:	74 28                	je     6df <free+0x6f>
 6b7:	89 10                	mov    %edx,(%eax)
 6b9:	a3 bc 0a 00 00       	mov    %eax,0xabc
 6be:	5b                   	pop    %ebx
 6bf:	5e                   	pop    %esi
 6c0:	5f                   	pop    %edi
 6c1:	5d                   	pop    %ebp
 6c2:	c3                   	ret    
 6c3:	90                   	nop
 6c4:	8d 74 26 00          	lea    0x0(%esi,%eiz,1),%esi
 6c8:	03 71 04             	add    0x4(%ecx),%esi
 6cb:	89 73 fc             	mov    %esi,-0x4(%ebx)
 6ce:	8b 08                	mov    (%eax),%ecx
 6d0:	8b 09                	mov    (%ecx),%ecx
 6d2:	89 4b f8             	mov    %ecx,-0x8(%ebx)
 6d5:	8b 48 04             	mov    0x4(%eax),%ecx
 6d8:	8d 34 c8             	lea    (%eax,%ecx,8),%esi
 6db:	39 f2                	cmp    %esi,%edx
 6dd:	75 d8                	jne    6b7 <free+0x47>
 6df:	03 4b fc             	add    -0x4(%ebx),%ecx
 6e2:	a3 bc 0a 00 00       	mov    %eax,0xabc
 6e7:	89 48 04             	mov    %ecx,0x4(%eax)
 6ea:	8b 53 f8             	mov    -0x8(%ebx),%edx
 6ed:	89 10                	mov    %edx,(%eax)
 6ef:	5b                   	pop    %ebx
 6f0:	5e                   	pop    %esi
 6f1:	5f                   	pop    %edi
 6f2:	5d                   	pop    %ebp
 6f3:	c3                   	ret    
 6f4:	8d b6 00 00 00 00    	lea    0x0(%esi),%esi
 6fa:	8d bf 00 00 00 00    	lea    0x0(%edi),%edi

00000700 <malloc>:
 700:	55                   	push   %ebp
 701:	89 e5                	mov    %esp,%ebp
 703:	57                   	push   %edi
 704:	56                   	push   %esi
 705:	53                   	push   %ebx
 706:	83 ec 1c             	sub    $0x1c,%esp
 709:	8b 45 08             	mov    0x8(%ebp),%eax
 70c:	8b 1d bc 0a 00 00    	mov    0xabc,%ebx
 712:	8d 48 07             	lea    0x7(%eax),%ecx
 715:	c1 e9 03             	shr    $0x3,%ecx
 718:	85 db                	test   %ebx,%ebx
 71a:	8d 71 01             	lea    0x1(%ecx),%esi
 71d:	0f 84 9b 00 00 00    	je     7be <malloc+0xbe>
 723:	8b 13                	mov    (%ebx),%edx
 725:	8b 7a 04             	mov    0x4(%edx),%edi
 728:	39 fe                	cmp    %edi,%esi
 72a:	76 64                	jbe    790 <malloc+0x90>
 72c:	8d 04 f5 00 00 00 00 	lea    0x0(,%esi,8),%eax
 733:	bb 00 80 00 00       	mov    $0x8000,%ebx
 738:	89 45 e4             	mov    %eax,-0x1c(%ebp)
 73b:	eb 0e                	jmp    74b <malloc+0x4b>
 73d:	8d 76 00             	lea    0x0(%esi),%esi
 740:	8b 02                	mov    (%edx),%eax
 742:	8b 78 04             	mov    0x4(%eax),%edi
 745:	39 fe                	cmp    %edi,%esi
 747:	76 4f                	jbe    798 <malloc+0x98>
 749:	89 c2                	mov    %eax,%edx
 74b:	3b 15 bc 0a 00 00    	cmp    0xabc,%edx
 751:	75 ed                	jne    740 <malloc+0x40>
 753:	8b 45 e4             	mov    -0x1c(%ebp),%eax
 756:	81 fe 00 10 00 00    	cmp    $0x1000,%esi
 75c:	bf 00 10 00 00       	mov    $0x1000,%edi
 761:	0f 43 fe             	cmovae %esi,%edi
 764:	0f 42 c3             	cmovb  %ebx,%eax
 767:	89 04 24             	mov    %eax,(%esp)
 76a:	e8 4d fc ff ff       	call   3bc <sbrk>
 76f:	83 f8 ff             	cmp    $0xffffffff,%eax
 772:	74 18                	je     78c <malloc+0x8c>
 774:	89 78 04             	mov    %edi,0x4(%eax)
 777:	83 c0 08             	add    $0x8,%eax
 77a:	89 04 24             	mov    %eax,(%esp)
 77d:	e8 ee fe ff ff       	call   670 <free>
 782:	8b 15 bc 0a 00 00    	mov    0xabc,%edx
 788:	85 d2                	test   %edx,%edx
 78a:	75 b4                	jne    740 <malloc+0x40>
 78c:	31 c0                	xor    %eax,%eax
 78e:	eb 20                	jmp    7b0 <malloc+0xb0>
 790:	89 d0                	mov    %edx,%eax
 792:	89 da                	mov    %ebx,%edx
 794:	8d 74 26 00          	lea    0x0(%esi,%eiz,1),%esi
 798:	39 fe                	cmp    %edi,%esi
 79a:	74 1c                	je     7b8 <malloc+0xb8>
 79c:	29 f7                	sub    %esi,%edi
 79e:	89 78 04             	mov    %edi,0x4(%eax)
 7a1:	8d 04 f8             	lea    (%eax,%edi,8),%eax
 7a4:	89 70 04             	mov    %esi,0x4(%eax)
 7a7:	89 15 bc 0a 00 00    	mov    %edx,0xabc
 7ad:	83 c0 08             	add    $0x8,%eax
 7b0:	83 c4 1c             	add    $0x1c,%esp
 7b3:	5b                   	pop    %ebx
 7b4:	5e                   	pop    %esi
 7b5:	5f                   	pop    %edi
 7b6:	5d                   	pop    %ebp
 7b7:	c3                   	ret    
 7b8:	8b 08                	mov    (%eax),%ecx
 7ba:	89 0a                	mov    %ecx,(%edx)
 7bc:	eb e9                	jmp    7a7 <malloc+0xa7>
 7be:	c7 05 bc 0a 00 00 c0 	movl   $0xac0,0xabc
 7c5:	0a 00 00 
 7c8:	ba c0 0a 00 00       	mov    $0xac0,%edx
 7cd:	c7 05 c0 0a 00 00 c0 	movl   $0xac0,0xac0
 7d4:	0a 00 00 
 7d7:	c7 05 c4 0a 00 00 00 	movl   $0x0,0xac4
 7de:	00 00 00 
 7e1:	e9 46 ff ff ff       	jmp    72c <malloc+0x2c>
